; Function Attrs: mustprogress nofree norecurse nosync nounwind memory(argmem: readwrite) uwtable
define internal void @_ZN2cv12cpu_baselineL14cvtScale64f16sEPKhmS2_mPhmNS_5Size_IiEEPv(ptr noundef readonly captures(none) %0, i64 noundef %1, ptr readnone captures(none) %2, i64 %3, ptr noundef writeonly captures(none) %4, i64 noundef %5, i64 %6, ptr noundef readonly captures(none) %7) #1 {
  %.sroa.2.0.extract.shift.i = lshr i64 %6, 32
  %.sroa.2.0.extract.trunc.i = trunc nuw i64 %.sroa.2.0.extract.shift.i to i32
  %9 = lshr i64 %1, 3
  %10 = lshr i64 %5, 1
  %11 = icmp sgt i32 %.sroa.2.0.extract.trunc.i, 0
  br i1 %11, label %.preheader.lr.ph.i, label %_ZN2cv12cpu_baseline7cvt_32fIdsEEvPKT_mPT0_mNS_5Size_IiEEff.exit

.preheader.lr.ph.i:                               ; preds = %8
  %12 = getelementptr inbounds nuw i8, ptr %7, i64 8
  %13 = load double, ptr %12, align 8, !tbaa !7
  %14 = fptrunc double %13 to float
  %15 = load double, ptr %7, align 8, !tbaa !7
  %16 = fptrunc double %15 to float
  %.sroa.0.0.extract.trunc.i = trunc i64 %6 to i32
  %17 = icmp sgt i32 %.sroa.0.0.extract.trunc.i, 0
  %18 = fpext float %16 to double
  %19 = fpext float %14 to double
  br i1 %17, label %.preheader.us.preheader.i, label %_ZN2cv12cpu_baseline7cvt_32fIdsEEvPKT_mPT0_mNS_5Size_IiEEff.exit

.preheader.us.preheader.i:                        ; preds = %.preheader.lr.ph.i
  %wide.trip.count.i = and i64 %6, 2147483647
  br label %.preheader.us.i

.preheader.us.i:                                  ; preds = %._crit_edge.us.i, %.preheader.us.preheader.i
  %.01521.us.i = phi i32 [ %30, %._crit_edge.us.i ], [ 0, %.preheader.us.preheader.i ]
  %.01620.us.i = phi ptr [ %31, %._crit_edge.us.i ], [ %0, %.preheader.us.preheader.i ]
  %.01719.us.i = phi ptr [ %32, %._crit_edge.us.i ], [ %4, %.preheader.us.preheader.i ]
  br label %20

20:                                               ; preds = %20, %.preheader.us.i
  %indvars.iv.i = phi i64 [ 0, %.preheader.us.i ], [ %indvars.iv.next.i, %20 ]
  %21 = getelementptr inbounds nuw double, ptr %.01620.us.i, i64 %indvars.iv.i
  %22 = load double, ptr %21, align 8, !tbaa !7
  %23 = tail call double @llvm.fmuladd.f64(double %22, double %18, double %19)
  %24 = insertelement <2 x double> poison, double %23, i64 0
  %25 = tail call noundef i32 @llvm.x86.sse2.cvtsd2si(<2 x double> %24)
  %26 = tail call i32 @llvm.smax.i32(i32 %25, i32 -32768)
  %27 = tail call i32 @llvm.smin.i32(i32 %26, i32 32767)
  %28 = trunc nsw i32 %27 to i16
  %29 = getelementptr inbounds nuw i16, ptr %.01719.us.i, i64 %indvars.iv.i
  store i16 %28, ptr %29, align 2, !tbaa !15
  %indvars.iv.next.i = add nuw nsw i64 %indvars.iv.i, 1
  %exitcond.not.i = icmp eq i64 %indvars.iv.next.i, %wide.trip.count.i
  br i1 %exitcond.not.i, label %._crit_edge.us.i, label %20, !llvm.loop !93

._crit_edge.us.i:                                 ; preds = %20
  %30 = add nuw nsw i32 %.01521.us.i, 1
  %31 = getelementptr inbounds nuw double, ptr %.01620.us.i, i64 %9
  %32 = getelementptr inbounds nuw i16, ptr %.01719.us.i, i64 %10
  %exitcond25.not.i = icmp eq i32 %30, %.sroa.2.0.extract.trunc.i
  br i1 %exitcond25.not.i, label %_ZN2cv12cpu_baseline7cvt_32fIdsEEvPKT_mPT0_mNS_5Size_IiEEff.exit, label %.preheader.us.i, !llvm.loop !94

_ZN2cv12cpu_baseline7cvt_32fIdsEEvPKT_mPT0_mNS_5Size_IiEEff.exit: ; preds = %._crit_edge.us.i, %8, %.preheader.lr.ph.i
  ret void
}